target datalayout = "e-m:e-p270:32:32-p271:32:32-p272:64:64-i64:64-i128:128-f80:128-n8:16:32:64-S128"
target triple = "x86_64-pc-linux-gnu"

%class.VMRegImpl = type { i8 }
%class.OopMapValue = type { i16, i16 }
%class.OopMap = type { i32, i32, i32, i32, i8, ptr }

@all_VMRegs = external hidden global [610 x %class.VMRegImpl], align 16

; Function Attrs: mustprogress nounwind uwtable
define linkonce_odr hidden noundef i64 @_Z9mask_bitsll(i64 noundef %0, i64 noundef %1) #1 comdat {
  %3 = alloca i64, align 8
  %4 = alloca i64, align 8
  store i64 %0, ptr %3, align 8
  store i64 %1, ptr %4, align 8
  %5 = load i64, ptr %3, align 8
  %6 = load i64, ptr %4, align 8
  %7 = and i64 %5, %6
  ret i64 %7
}

; Function Attrs: mustprogress nounwind uwtable
define linkonce_odr hidden noundef zeroext i16 @_ZNK11OopMapValue5valueEv(ptr noundef nonnull align 2 dereferenceable(4) %0) #1 comdat align 2 {
  %2 = alloca ptr, align 8
  store ptr %0, ptr %2, align 8
  %3 = load ptr, ptr %2, align 8
  %4 = getelementptr inbounds %class.OopMapValue, ptr %3, i32 0, i32 0
  %5 = load i16, ptr %4, align 2
  ret i16 %5
}

; Function Attrs: mustprogress nounwind uwtable
define linkonce_odr hidden noundef i32 @_Z12checked_castIilET_T0_(i64 noundef %0) #1 comdat {
  %2 = alloca i64, align 8
  %3 = alloca i32, align 4
  store i64 %0, ptr %2, align 8
  %4 = load i64, ptr %2, align 8
  %5 = trunc i64 %4 to i32
  store i32 %5, ptr %3, align 4
  %6 = load i32, ptr %3, align 4
  ret i32 %6
}

; Function Attrs: mustprogress nounwind uwtable
define linkonce_odr hidden noundef signext i16 @_Z12checked_castIsiET_T0_(i32 noundef %0) #1 comdat {
  %2 = alloca i32, align 4
  %3 = alloca i16, align 2
  store i32 %0, ptr %2, align 4
  %4 = load i32, ptr %2, align 4
  %5 = trunc i32 %4 to i16
  store i16 %5, ptr %3, align 2
  %6 = load i16, ptr %3, align 2
  ret i16 %6
}

; Function Attrs: mustprogress nounwind uwtable
define linkonce_odr hidden noundef zeroext i1 @_ZN11OopMapValue14is_derived_oopEv(ptr noundef nonnull align 2 dereferenceable(4) %0) #1 comdat align 2 {
  %2 = alloca ptr, align 8
  store ptr %0, ptr %2, align 8
  %3 = load ptr, ptr %2, align 8
  %4 = call noundef zeroext i16 @_ZNK11OopMapValue5valueEv(ptr noundef nonnull align 2 dereferenceable(4) %3)
  %5 = zext i16 %4 to i64
  %6 = call noundef i64 @_Z9mask_bitsll(i64 noundef %5, i64 noundef 3)
  %7 = icmp eq i64 %6, 3
  ret i1 %7
}

; Function Attrs: mustprogress nounwind uwtable
define linkonce_odr hidden noundef zeroext i1 @_ZN11OopMapValue15is_callee_savedEv(ptr noundef nonnull align 2 dereferenceable(4) %0) #1 comdat align 2 {
  %2 = alloca ptr, align 8
  store ptr %0, ptr %2, align 8
  %3 = load ptr, ptr %2, align 8
  %4 = call noundef zeroext i16 @_ZNK11OopMapValue5valueEv(ptr noundef nonnull align 2 dereferenceable(4) %3)
  %5 = zext i16 %4 to i64
  %6 = call noundef i64 @_Z9mask_bitsll(i64 noundef %5, i64 noundef 3)
  %7 = icmp eq i64 %6, 2
  ret i1 %7
}

; Function Attrs: mustprogress nounwind uwtable
define linkonce_odr hidden void @_ZN11OopMapValue9set_valueEt(ptr noundef nonnull align 2 dereferenceable(4) %0, i16 noundef zeroext %1) #1 comdat align 2 {
  %3 = alloca ptr, align 8
  %4 = alloca i16, align 2
  store ptr %0, ptr %3, align 8
  store i16 %1, ptr %4, align 2
  %5 = load ptr, ptr %3, align 8
  %6 = load i16, ptr %4, align 2
  %7 = getelementptr inbounds %class.OopMapValue, ptr %5, i32 0, i32 0
  store i16 %6, ptr %7, align 2
  ret void
}

; Function Attrs: mustprogress nounwind uwtable
define linkonce_odr hidden noundef zeroext i16 @_Z12checked_castItiET_T0_(i32 noundef %0) #1 comdat {
  %2 = alloca i32, align 4
  %3 = alloca i16, align 2
  store i32 %0, ptr %2, align 4
  %4 = load i32, ptr %2, align 4
  %5 = trunc i32 %4 to i16
  store i16 %5, ptr %3, align 2
  %6 = load i16, ptr %3, align 2
  ret i16 %6
}

; Function Attrs: mustprogress nounwind uwtable
define linkonce_odr hidden noundef i32 @_ZNK9VMRegImpl5valueEv(ptr noundef nonnull align 1 dereferenceable(1) %0) #1 comdat align 2 {
  %2 = alloca ptr, align 8
  store ptr %0, ptr %2, align 8
  %3 = load ptr, ptr %2, align 8
  %4 = call noundef ptr @_ZN9VMRegImpl5firstEv()
  %5 = ptrtoint ptr %3 to i64
  %6 = ptrtoint ptr %4 to i64
  %7 = sub i64 %5, %6
  %8 = call noundef i32 @_Z12checked_castIilET_T0_(i64 noundef %7)
  ret i32 %8
}

; Function Attrs: mustprogress nounwind uwtable
define linkonce_odr hidden void @_ZN11OopMapValue15set_content_regEP9VMRegImpl(ptr noundef nonnull align 2 dereferenceable(4) %0, ptr noundef %1) #1 comdat align 2 {
  %3 = alloca ptr, align 8
  %4 = alloca ptr, align 8
  store ptr %0, ptr %3, align 8
  store ptr %1, ptr %4, align 8
  %5 = load ptr, ptr %3, align 8
  %6 = call noundef zeroext i1 @_ZN11OopMapValue15is_callee_savedEv(ptr noundef nonnull align 2 dereferenceable(4) %5)
  br i1 %6, label %7, label %8

7:                                                ; preds = %2
  br label %13

8:                                                ; preds = %2
  %9 = call noundef zeroext i1 @_ZN11OopMapValue14is_derived_oopEv(ptr noundef nonnull align 2 dereferenceable(4) %5)
  br i1 %9, label %10, label %11

10:                                               ; preds = %8
  br label %12

11:                                               ; preds = %8
  br label %12

12:                                               ; preds = %11, %10
  br label %13

13:                                               ; preds = %12, %7
  %14 = load ptr, ptr %4, align 8
  %15 = call noundef i32 @_ZNK9VMRegImpl5valueEv(ptr noundef nonnull align 1 dereferenceable(1) %14)
  %16 = call noundef signext i16 @_Z12checked_castIsiET_T0_(i32 noundef %15)
  %17 = getelementptr inbounds %class.OopMapValue, ptr %5, i32 0, i32 1
  store i16 %16, ptr %17, align 2
  ret void
}

; Function Attrs: mustprogress nounwind uwtable
define linkonce_odr hidden void @_ZN11OopMapValue12set_reg_typeEP9VMRegImplNS_9oop_typesE(ptr noundef nonnull align 2 dereferenceable(4) %0, ptr noundef %1, i32 noundef %2) #1 comdat align 2 {
  %4 = alloca ptr, align 8
  %5 = alloca ptr, align 8
  %6 = alloca i32, align 4
  store ptr %0, ptr %4, align 8
  store ptr %1, ptr %5, align 8
  store i32 %2, ptr %6, align 4
  %7 = load ptr, ptr %4, align 8
  %8 = load ptr, ptr %5, align 8
  %9 = call noundef i32 @_ZNK9VMRegImpl5valueEv(ptr noundef nonnull align 1 dereferenceable(1) %8)
  %10 = shl i32 %9, 2
  %11 = load i32, ptr %6, align 4
  %12 = or i32 %10, %11
  %13 = call noundef zeroext i16 @_Z12checked_castItiET_T0_(i32 noundef %12)
  call void @_ZN11OopMapValue9set_valueEt(ptr noundef nonnull align 2 dereferenceable(4) %7, i16 noundef zeroext %13)
  ret void
}

; Function Attrs: mustprogress nounwind uwtable
define linkonce_odr hidden void @_ZN6OopMap20set_has_derived_oopsEb(ptr noundef nonnull align 8 dereferenceable(32) %0, i1 noundef zeroext %1) #1 comdat align 2 {
  %3 = alloca ptr, align 8
  %4 = alloca i8, align 1
  store ptr %0, ptr %3, align 8
  %5 = zext i1 %1 to i8
  store i8 %5, ptr %4, align 1
  %6 = load ptr, ptr %3, align 8
  %7 = load i8, ptr %4, align 1
  %8 = trunc i8 %7 to i1
  %9 = getelementptr inbounds %class.OopMap, ptr %6, i32 0, i32 4
  %10 = zext i1 %8 to i8
  store i8 %10, ptr %9, align 8
  ret void
}

; Function Attrs: mustprogress nounwind uwtable
define linkonce_odr hidden void @_ZN6OopMap18increment_num_oopsEv(ptr noundef nonnull align 8 dereferenceable(32) %0) #1 comdat align 2 {
  %2 = alloca ptr, align 8
  store ptr %0, ptr %2, align 8
  %3 = load ptr, ptr %2, align 8
  %4 = getelementptr inbounds %class.OopMap, ptr %3, i32 0, i32 2
  %5 = load i32, ptr %4, align 8
  %6 = add nsw i32 %5, 1
  store i32 %6, ptr %4, align 8
  ret void
}

; Function Attrs: mustprogress nounwind uwtable
define linkonce_odr hidden void @_ZN6OopMap15increment_countEv(ptr noundef nonnull align 8 dereferenceable(32) %0) #1 comdat align 2 {
  %2 = alloca ptr, align 8
  store ptr %0, ptr %2, align 8
  %3 = load ptr, ptr %2, align 8
  %4 = getelementptr inbounds %class.OopMap, ptr %3, i32 0, i32 1
  %5 = load i32, ptr %4, align 4
  %6 = add nsw i32 %5, 1
  store i32 %6, ptr %4, align 4
  ret void
}

; Function Attrs: mustprogress nounwind uwtable
define linkonce_odr hidden noundef ptr @_ZNK6OopMap12write_streamEv(ptr noundef nonnull align 8 dereferenceable(32) %0) #1 comdat align 2 {
  %2 = alloca ptr, align 8
  store ptr %0, ptr %2, align 8
  %3 = load ptr, ptr %2, align 8
  %4 = getelementptr inbounds %class.OopMap, ptr %3, i32 0, i32 5
  %5 = load ptr, ptr %4, align 8
  ret ptr %5
}

; Function Attrs: mustprogress nounwind uwtable
define linkonce_odr hidden void @_ZN11OopMapValueC2EP9VMRegImplNS_9oop_typesES1_(ptr noundef nonnull align 2 dereferenceable(4) %0, ptr noundef %1, i32 noundef %2, ptr noundef %3) unnamed_addr #1 comdat align 2 {
  %5 = alloca ptr, align 8
  %6 = alloca ptr, align 8
  %7 = alloca i32, align 4
  %8 = alloca ptr, align 8
  store ptr %0, ptr %5, align 8
  store ptr %1, ptr %6, align 8
  store i32 %2, ptr %7, align 4
  store ptr %3, ptr %8, align 8
  %9 = load ptr, ptr %5, align 8
  %10 = load ptr, ptr %6, align 8
  %11 = load i32, ptr %7, align 4
  call void @_ZN11OopMapValue12set_reg_typeEP9VMRegImplNS_9oop_typesE(ptr noundef nonnull align 2 dereferenceable(4) %9, ptr noundef %10, i32 noundef %11)
  %12 = load ptr, ptr %8, align 8
  call void @_ZN11OopMapValue15set_content_regEP9VMRegImpl(ptr noundef nonnull align 2 dereferenceable(4) %9, ptr noundef %12)
  ret void
}

; Function Attrs: mustprogress nounwind uwtable
define linkonce_odr hidden noundef ptr @_ZN9VMRegImpl5firstEv() #1 comdat align 2 {
  ret ptr getelementptr inbounds (%class.VMRegImpl, ptr @all_VMRegs, i64 1)
}

; Function Attrs: mustprogress nounwind uwtable
define hidden void @_ZN6OopMap7set_xxxEP9VMRegImplN11OopMapValue9oop_typesES1_(ptr noundef nonnull align 8 dereferenceable(32) %0, ptr noundef %1, i32 noundef %2, ptr noundef %3) #1 align 2 {
  %5 = alloca ptr, align 8
  %6 = alloca ptr, align 8
  %7 = alloca i32, align 4
  %8 = alloca ptr, align 8
  %9 = alloca %class.OopMapValue, align 2
  store ptr %0, ptr %5, align 8
  store ptr %1, ptr %6, align 8
  store i32 %2, ptr %7, align 4
  store ptr %3, ptr %8, align 8
  %10 = load ptr, ptr %5, align 8
  %11 = load ptr, ptr %6, align 8
  %12 = load i32, ptr %7, align 4
  %13 = load ptr, ptr %8, align 8
  call void @_ZN11OopMapValueC2EP9VMRegImplNS_9oop_typesES1_(ptr noundef nonnull align 2 dereferenceable(4) %9, ptr noundef %11, i32 noundef %12, ptr noundef %13)
  %14 = call noundef ptr @_ZNK6OopMap12write_streamEv(ptr noundef nonnull align 8 dereferenceable(32) %10)
  call void @_ZN11OopMapValue8write_onEP21CompressedWriteStream(ptr noundef nonnull align 2 dereferenceable(4) %9, ptr noundef %14)
  call void @_ZN6OopMap15increment_countEv(ptr noundef nonnull align 8 dereferenceable(32) %10)
  %15 = load i32, ptr %7, align 4
  %16 = icmp eq i32 %15, 0
  br i1 %16, label %20, label %17

17:                                               ; preds = %4
  %18 = load i32, ptr %7, align 4
  %19 = icmp eq i32 %18, 1
  br i1 %19, label %20, label %21

20:                                               ; preds = %17, %4
  call void @_ZN6OopMap18increment_num_oopsEv(ptr noundef nonnull align 8 dereferenceable(32) %10)
  br label %26

21:                                               ; preds = %17
  %22 = load i32, ptr %7, align 4
  %23 = icmp eq i32 %22, 3
  br i1 %23, label %24, label %25

24:                                               ; preds = %21
  call void @_ZN6OopMap20set_has_derived_oopsEb(ptr noundef nonnull align 8 dereferenceable(32) %10, i1 noundef zeroext true)
  br label %25

25:                                               ; preds = %24, %21
  br label %26

26:                                               ; preds = %25, %20
  ret void
}

; Function Attrs: mustprogress nounwind uwtable
define linkonce_odr hidden noundef ptr @_ZN9VMRegImpl3BadEv() #1 comdat align 2 {
  %1 = call noundef ptr @_ZN9VMRegImpl5firstEv()
  %2 = getelementptr inbounds %class.VMRegImpl, ptr %1, i64 -1
  ret ptr %2
}

; Function Attrs: mustprogress nounwind uwtable
define hidden void @_ZN6OopMap7set_oopEP9VMRegImpl(ptr noundef nonnull align 8 dereferenceable(32) %0, ptr noundef %1) #1 align 2 {
  %3 = alloca ptr, align 8
  %4 = alloca ptr, align 8
  store ptr %0, ptr %3, align 8
  store ptr %1, ptr %4, align 8
  %5 = load ptr, ptr %3, align 8
  %6 = load ptr, ptr %4, align 8
  %7 = call noundef ptr @_ZN9VMRegImpl3BadEv()
  call void @_ZN6OopMap7set_xxxEP9VMRegImplN11OopMapValue9oop_typesES1_(ptr noundef nonnull align 8 dereferenceable(32) %5, ptr noundef %6, i32 noundef 0, ptr noundef %7)
  ret void
}