; Function Attrs: mustprogress nounwind uwtable
define hidden void @_ZN6OopMap7set_oopEP9VMRegImpl(ptr nocapture noundef nonnull align 8 dereferenceable(32) %0, ptr noundef %1) local_unnamed_addr #2 align 2 {
  %3 = alloca %class.OopMapValue, align 2
  call void @llvm.lifetime.start.p0(i64 4, ptr nonnull %3)
  %4 = ptrtoint ptr %1 to i64
  %5 = trunc i64 %4 to i16
  %.tr = sub i16 %5, ptrtoint (ptr getelementptr inbounds (i8, ptr @all_VMRegs, i64 1) to i16)
  %6 = shl i16 %.tr, 2
  store i16 %6, ptr %3, align 2
  %7 = getelementptr inbounds i8, ptr %3, i64 2
  store i16 -1, ptr %7, align 2
  %8 = getelementptr inbounds i8, ptr %0, i64 24
  %9 = load ptr, ptr %8, align 8
  call void @_ZN11OopMapValue8write_onEP21CompressedWriteStream(ptr noundef nonnull align 2 dereferenceable(4) %3, ptr noundef %9)
  %10 = getelementptr inbounds i8, ptr %0, i64 4
  %11 = load <2 x i32>, ptr %10, align 4
  %12 = add nsw <2 x i32> %11, <i32 1, i32 1>
  store <2 x i32> %12, ptr %10, align 4
  call void @llvm.lifetime.end.p0(i64 4, ptr nonnull %3)
  ret void
}